target datalayout = "e-m:e-p270:32:32-p271:32:32-p272:64:64-i64:64-i128:128-f80:128-n8:16:32:64-S128"
target triple = "x86_64-pc-linux-gnu"

%struct.PyModuleDef = type { %struct.PyModuleDef_Base, ptr, ptr, i64, ptr, ptr, ptr, ptr, ptr }
%struct.PyModuleDef_Base = type { %struct._object, ptr, i64, ptr }
%struct._object = type { %union.anon, ptr }
%union.anon = type { i64 }
%struct._longobject = type { %struct._object, %struct._PyLongValue }
%struct._PyLongValue = type { i64, [1 x i32] }
%struct.pysqlite_Connection = type { %struct._object, ptr, ptr, i32, ptr, i32, i32, i32, i64, ptr, ptr, ptr, i32, ptr, ptr, ptr, ptr, ptr, ptr, ptr, ptr, ptr, ptr, ptr, ptr, ptr, ptr, ptr }
%struct.pysqlite_state = type { ptr, ptr, ptr, ptr, ptr, ptr, ptr, ptr, ptr, ptr, ptr, ptr, ptr, i32, i32, ptr, ptr, ptr, ptr, ptr, ptr, ptr, ptr, ptr, ptr, ptr, ptr, ptr, ptr }

@.str = private unnamed_addr constant [37 x i8] c"Base Connection.__init__ not called.\00", align 1
@.str.1 = private unnamed_addr constant [37 x i8] c"Cannot operate on a closed database.\00", align 1
@.str.2 = private unnamed_addr constant [140 x i8] c"SQLite objects created in a thread can only be used in that same thread. The object was created in thread id %lu and this is thread id %lu.\00", align 1
@_sqlite3module = external global %struct.PyModuleDef, align 8
@_Py_FalseStruct = external global %struct._longobject, align 8
@_Py_TrueStruct = external global %struct._longobject, align 8

; Function Attrs: inlinehint nounwind uwtable
define internal ptr @pysqlite_get_state(ptr noundef %0) #2 {
  %2 = alloca ptr, align 8
  %3 = alloca ptr, align 8
  store ptr %0, ptr %2, align 8, !tbaa !22
  call void @llvm.lifetime.start.p0(i64 8, ptr %3) #8
  %4 = load ptr, ptr %2, align 8, !tbaa !22
  %5 = call ptr @PyModule_GetState(ptr noundef %4)
  store ptr %5, ptr %3, align 8, !tbaa !3
  %6 = load ptr, ptr %3, align 8, !tbaa !3
  call void @llvm.lifetime.end.p0(i64 8, ptr %3) #8
  ret ptr %6
}

; Function Attrs: inlinehint nounwind uwtable
define internal ptr @pysqlite_get_state_by_type(ptr noundef %0) #2 {
  %2 = alloca ptr, align 8
  %3 = alloca ptr, align 8
  store ptr %0, ptr %2, align 8, !tbaa !21
  call void @llvm.lifetime.start.p0(i64 8, ptr %3) #8
  %4 = load ptr, ptr %2, align 8, !tbaa !21
  %5 = call ptr @PyType_GetModuleByDef(ptr noundef %4, ptr noundef @_sqlite3module)
  store ptr %5, ptr %3, align 8, !tbaa !22
  %6 = load ptr, ptr %3, align 8, !tbaa !22
  %7 = call ptr @pysqlite_get_state(ptr noundef %6)
  call void @llvm.lifetime.end.p0(i64 8, ptr %3) #8
  ret ptr %7
}

; Function Attrs: inlinehint nounwind uwtable
define internal ptr @_Py_TYPE(ptr noundef %0) #2 {
  %2 = alloca ptr, align 8
  store ptr %0, ptr %2, align 8, !tbaa !22
  %3 = load ptr, ptr %2, align 8, !tbaa !22
  %4 = getelementptr inbounds nuw %struct._object, ptr %3, i32 0, i32 1
  %5 = load ptr, ptr %4, align 8, !tbaa !23
  ret ptr %5
}

; Function Attrs: nounwind uwtable
define hidden i32 @pysqlite_check_connection(ptr noundef %0) #0 {
  %2 = alloca i32, align 4
  %3 = alloca ptr, align 8
  %4 = alloca ptr, align 8
  store ptr %0, ptr %3, align 8, !tbaa !3
  %5 = load ptr, ptr %3, align 8, !tbaa !3
  %6 = getelementptr inbounds nuw %struct.pysqlite_Connection, ptr %5, i32 0, i32 7
  %7 = load i32, ptr %6, align 8, !tbaa !7
  %8 = icmp ne i32 %7, 0
  br i1 %8, label %16, label %9

9:                                                ; preds = %1
  call void @llvm.lifetime.start.p0(i64 8, ptr %4) #8
  %10 = load ptr, ptr %3, align 8, !tbaa !3
  %11 = call ptr @_Py_TYPE(ptr noundef %10)
  %12 = call ptr @pysqlite_get_state_by_type(ptr noundef %11)
  store ptr %12, ptr %4, align 8, !tbaa !3
  %13 = load ptr, ptr %4, align 8, !tbaa !3
  %14 = getelementptr inbounds nuw %struct.pysqlite_state, ptr %13, i32 0, i32 8
  %15 = load ptr, ptr %14, align 8, !tbaa !17
  call void @PyErr_SetString(ptr noundef %15, ptr noundef @.str)
  store i32 0, ptr %2, align 4
  call void @llvm.lifetime.end.p0(i64 8, ptr %4) #8
  br label %28

16:                                               ; preds = %1
  %17 = load ptr, ptr %3, align 8, !tbaa !3
  %18 = getelementptr inbounds nuw %struct.pysqlite_Connection, ptr %17, i32 0, i32 1
  %19 = load ptr, ptr %18, align 8, !tbaa !19
  %20 = icmp ne ptr %19, null
  br i1 %20, label %27, label %21

21:                                               ; preds = %16
  %22 = load ptr, ptr %3, align 8, !tbaa !3
  %23 = getelementptr inbounds nuw %struct.pysqlite_Connection, ptr %22, i32 0, i32 2
  %24 = load ptr, ptr %23, align 8, !tbaa !20
  %25 = getelementptr inbounds nuw %struct.pysqlite_state, ptr %24, i32 0, i32 8
  %26 = load ptr, ptr %25, align 8, !tbaa !17
  call void @PyErr_SetString(ptr noundef %26, ptr noundef @.str.1)
  store i32 0, ptr %2, align 4
  br label %28

27:                                               ; preds = %16
  store i32 1, ptr %2, align 4
  br label %28

28:                                               ; preds = %27, %21, %9
  %29 = load i32, ptr %2, align 4
  ret i32 %29
}

; Function Attrs: nounwind uwtable
define hidden i32 @pysqlite_check_thread(ptr noundef %0) #0 {
  %2 = alloca i32, align 4
  %3 = alloca ptr, align 8
  store ptr %0, ptr %3, align 8, !tbaa !3
  %4 = load ptr, ptr %3, align 8, !tbaa !3
  %5 = getelementptr inbounds nuw %struct.pysqlite_Connection, ptr %4, i32 0, i32 6
  %6 = load i32, ptr %5, align 4, !tbaa !24
  %7 = icmp ne i32 %6, 0
  br i1 %7, label %8, label %24

8:                                                ; preds = %1
  %9 = call i64 @PyThread_get_thread_ident()
  %10 = load ptr, ptr %3, align 8, !tbaa !3
  %11 = getelementptr inbounds nuw %struct.pysqlite_Connection, ptr %10, i32 0, i32 8
  %12 = load i64, ptr %11, align 8, !tbaa !25
  %13 = icmp ne i64 %9, %12
  br i1 %13, label %14, label %23

14:                                               ; preds = %8
  %15 = load ptr, ptr %3, align 8, !tbaa !3
  %16 = getelementptr inbounds nuw %struct.pysqlite_Connection, ptr %15, i32 0, i32 26
  %17 = load ptr, ptr %16, align 8, !tbaa !26
  %18 = load ptr, ptr %3, align 8, !tbaa !3
  %19 = getelementptr inbounds nuw %struct.pysqlite_Connection, ptr %18, i32 0, i32 8
  %20 = load i64, ptr %19, align 8, !tbaa !25
  %21 = call i64 @PyThread_get_thread_ident()
  %22 = call ptr (ptr, ptr, ...) @PyErr_Format(ptr noundef %17, ptr noundef @.str.2, i64 noundef %20, i64 noundef %21)
  store i32 0, ptr %2, align 4
  br label %25

23:                                               ; preds = %8
  br label %24

24:                                               ; preds = %23, %1
  store i32 1, ptr %2, align 4
  br label %25

25:                                               ; preds = %24, %14
  %26 = load i32, ptr %2, align 4
  ret i32 %26
}

; Function Attrs: nounwind uwtable
define internal ptr @get_autocommit(ptr noundef %0, ptr noundef %1) #0 {
  %3 = alloca ptr, align 8
  %4 = alloca ptr, align 8
  %5 = alloca ptr, align 8
  %6 = alloca ptr, align 8
  %7 = alloca i32, align 4
  store ptr %0, ptr %4, align 8, !tbaa !22
  store ptr %1, ptr %5, align 8, !tbaa !3
  call void @llvm.lifetime.start.p0(i64 8, ptr %6) #8
  %8 = load ptr, ptr %4, align 8, !tbaa !22
  store ptr %8, ptr %6, align 8, !tbaa !3
  %9 = load ptr, ptr %6, align 8, !tbaa !3
  %10 = call i32 @pysqlite_check_thread(ptr noundef %9)
  %11 = icmp ne i32 %10, 0
  br i1 %11, label %12, label %16

12:                                               ; preds = %2
  %13 = load ptr, ptr %6, align 8, !tbaa !3
  %14 = call i32 @pysqlite_check_connection(ptr noundef %13)
  %15 = icmp ne i32 %14, 0
  br i1 %15, label %17, label %16

16:                                               ; preds = %12, %2
  store ptr null, ptr %3, align 8
  store i32 1, ptr %7, align 4
  br label %31

17:                                               ; preds = %12
  %18 = load ptr, ptr %6, align 8, !tbaa !3
  %19 = getelementptr inbounds nuw %struct.pysqlite_Connection, ptr %18, i32 0, i32 5
  %20 = load i32, ptr %19, align 8, !tbaa !57
  %21 = icmp eq i32 %20, 1
  br i1 %21, label %22, label %23

22:                                               ; preds = %17
  store ptr @_Py_TrueStruct, ptr %3, align 8
  store i32 1, ptr %7, align 4
  br label %31

23:                                               ; preds = %17
  %24 = load ptr, ptr %6, align 8, !tbaa !3
  %25 = getelementptr inbounds nuw %struct.pysqlite_Connection, ptr %24, i32 0, i32 5
  %26 = load i32, ptr %25, align 8, !tbaa !57
  %27 = icmp eq i32 %26, 0
  br i1 %27, label %28, label %29

28:                                               ; preds = %23
  store ptr @_Py_FalseStruct, ptr %3, align 8
  store i32 1, ptr %7, align 4
  br label %31

29:                                               ; preds = %23
  %30 = call ptr @PyLong_FromLong(i64 noundef -1)
  store ptr %30, ptr %3, align 8
  store i32 1, ptr %7, align 4
  br label %31

31:                                               ; preds = %29, %28, %22, %16
  call void @llvm.lifetime.end.p0(i64 8, ptr %6) #8
  %32 = load ptr, ptr %3, align 8
  ret ptr %32
}