; Function Attrs: nounwind uwtable
define internal ptr @get_autocommit(ptr noundef readonly captures(none) %0, ptr readnone captures(none) %1) #0 {
  %3 = getelementptr inbounds nuw i8, ptr %0, i64 52
  %4 = load i32, ptr %3, align 4, !tbaa !21
  %.not.i = icmp eq i32 %4, 0
  br i1 %.not.i, label %13, label %5

5:                                                ; preds = %2
  %6 = tail call i64 @PyThread_get_thread_ident() #7
  %7 = getelementptr inbounds nuw i8, ptr %0, i64 64
  %8 = load i64, ptr %7, align 8, !tbaa !22
  %.not5.i = icmp eq i64 %6, %8
  br i1 %.not5.i, label %13, label %pysqlite_check_thread.exit

pysqlite_check_thread.exit:                       ; preds = %5
  %9 = getelementptr inbounds nuw i8, ptr %0, i64 208
  %10 = load ptr, ptr %9, align 8, !tbaa !23
  %11 = tail call i64 @PyThread_get_thread_ident() #7
  %12 = tail call ptr (ptr, ptr, ...) @PyErr_Format(ptr noundef %10, ptr noundef nonnull @.str.2, i64 noundef %8, i64 noundef %11) #7
  br label %33

13:                                               ; preds = %5, %2
  %14 = getelementptr inbounds nuw i8, ptr %0, i64 56
  %15 = load i32, ptr %14, align 8, !tbaa !3
  %.not.i8 = icmp eq i32 %15, 0
  br i1 %.not.i8, label %16, label %20

16:                                               ; preds = %13
  %17 = getelementptr i8, ptr %0, i64 8
  %.val.i = load ptr, ptr %17, align 8, !tbaa !16
  %18 = tail call ptr @PyType_GetModuleByDef(ptr noundef %.val.i, ptr noundef nonnull @_sqlite3module) #7
  %19 = tail call ptr @PyModule_GetState(ptr noundef %18) #7
  br label %pysqlite_check_connection.exit.thread

20:                                               ; preds = %13
  %21 = getelementptr inbounds nuw i8, ptr %0, i64 16
  %22 = load ptr, ptr %21, align 8, !tbaa !17
  %.not5.i9 = icmp eq ptr %22, null
  br i1 %.not5.i9, label %23, label %pysqlite_check_connection.exit

23:                                               ; preds = %20
  %24 = getelementptr inbounds nuw i8, ptr %0, i64 24
  %25 = load ptr, ptr %24, align 8, !tbaa !18
  br label %pysqlite_check_connection.exit.thread

pysqlite_check_connection.exit.thread:            ; preds = %16, %23
  %.sink.i = phi ptr [ %25, %23 ], [ %19, %16 ]
  %.str.1.sink.i = phi ptr [ @.str.1, %23 ], [ @.str, %16 ]
  %26 = getelementptr inbounds nuw i8, ptr %.sink.i, i64 64
  %27 = load ptr, ptr %26, align 8, !tbaa !19
  tail call void @PyErr_SetString(ptr noundef %27, ptr noundef nonnull %.str.1.sink.i) #7
  br label %33

pysqlite_check_connection.exit:                   ; preds = %20
  %28 = getelementptr inbounds nuw i8, ptr %0, i64 48
  %29 = load i32, ptr %28, align 8, !tbaa !51
  switch i32 %29, label %31 [
    i32 1, label %33
    i32 0, label %30
  ]

30:                                               ; preds = %pysqlite_check_connection.exit
  br label %33

31:                                               ; preds = %pysqlite_check_connection.exit
  %32 = tail call ptr @PyLong_FromLong(i64 noundef -1) #7
  br label %33

33:                                               ; preds = %pysqlite_check_connection.exit.thread, %pysqlite_check_thread.exit, %pysqlite_check_connection.exit, %31, %30
  %.0 = phi ptr [ @_Py_FalseStruct, %30 ], [ %32, %31 ], [ null, %pysqlite_check_thread.exit ], [ @_Py_TrueStruct, %pysqlite_check_connection.exit ], [ null, %pysqlite_check_connection.exit.thread ]
  ret ptr %.0
}